target datalayout = "e-m:e-p270:32:32-p271:32:32-p272:64:64-i64:64-i128:128-f80:128-n8:16:32:64-S128"
target triple = "x86_64-pc-linux-gnu"

%struct.display_data = type { i64, i32, ptr, i8, i32, ptr, ptr, ptr, ptr, ptr, ptr, ptr, ptr }

; Function Attrs: nounwind uwtable
define dso_local i32 @find_col(ptr noundef %0, i32 noundef %1) #0 {
  %3 = alloca i32, align 4
  %4 = alloca ptr, align 8
  %5 = alloca i32, align 4
  %6 = alloca i32, align 4
  %7 = alloca i32, align 4
  store ptr %0, ptr %4, align 8
  store i32 %1, ptr %5, align 4
  call void @llvm.lifetime.start.p0(i64 4, ptr %6) #11
  store i32 0, ptr %6, align 4
  br label %8

8:                                                ; preds = %26, %2
  %9 = load ptr, ptr %4, align 8
  %10 = getelementptr inbounds nuw %struct.display_data, ptr %9, i32 1
  store ptr %10, ptr %4, align 8
  %11 = icmp ne ptr %9, null
  br i1 %11, label %12, label %29

12:                                               ; preds = %8
  %13 = load ptr, ptr %4, align 8
  %14 = getelementptr inbounds nuw %struct.display_data, ptr %13, i32 0, i32 1
  %15 = load i32, ptr %14, align 8
  %16 = icmp eq i32 %15, -1
  br i1 %16, label %17, label %18

17:                                               ; preds = %12
  br label %29

18:                                               ; preds = %12
  %19 = load ptr, ptr %4, align 8
  %20 = getelementptr inbounds nuw %struct.display_data, ptr %19, i32 0, i32 1
  %21 = load i32, ptr %20, align 8
  %22 = load i32, ptr %5, align 4
  %23 = icmp eq i32 %21, %22
  br i1 %23, label %24, label %26

24:                                               ; preds = %18
  %25 = load i32, ptr %6, align 4
  store i32 %25, ptr %3, align 4
  store i32 1, ptr %7, align 4
  br label %30

26:                                               ; preds = %18
  %27 = load i32, ptr %6, align 4
  %28 = add nsw i32 %27, 1
  store i32 %28, ptr %6, align 4
  br label %8, !llvm.loop !18

29:                                               ; preds = %17, %8
  store i32 -1, ptr %3, align 4
  store i32 1, ptr %7, align 4
  br label %30

30:                                               ; preds = %29, %24
  call void @llvm.lifetime.end.p0(i64 4, ptr %6) #11
  %31 = load i32, ptr %3, align 4
  ret i32 %31
}