; Function Attrs: nofree norecurse nosync nounwind memory(argmem: read) uwtable
define dso_local i32 @find_col(ptr noundef readonly captures(address_is_null) %0, i32 noundef %1) local_unnamed_addr #5 {
  %.not9 = icmp eq ptr %0, null
  br i1 %.not9, label %._crit_edge, label %.lr.ph.preheader

.lr.ph.preheader:                                 ; preds = %2
  %3 = getelementptr inbounds nuw i8, ptr %0, i64 104
  %4 = load i32, ptr %3, align 8
  %5 = icmp eq i32 %4, -1
  br i1 %5, label %._crit_edge, label %.lr.ph17

.lr.ph17:                                         ; preds = %.lr.ph.preheader, %.lr.ph
  %6 = phi i32 [ %11, %.lr.ph ], [ %4, %.lr.ph.preheader ]
  %.pn = phi ptr [ %8, %.lr.ph ], [ %0, %.lr.ph.preheader ]
  %.01116 = phi i32 [ %9, %.lr.ph ], [ 0, %.lr.ph.preheader ]
  %7 = icmp eq i32 %6, %1
  br i1 %7, label %._crit_edge, label %.lr.ph

.lr.ph:                                           ; preds = %.lr.ph17
  %8 = getelementptr inbounds nuw i8, ptr %.pn, i64 96
  %9 = add nuw nsw i32 %.01116, 1
  %10 = getelementptr inbounds nuw i8, ptr %.pn, i64 200
  %11 = load i32, ptr %10, align 8
  %12 = icmp eq i32 %11, -1
  br i1 %12, label %._crit_edge, label %.lr.ph17

._crit_edge:                                      ; preds = %.lr.ph, %.lr.ph17, %.lr.ph.preheader, %2
  %.06 = phi i32 [ -1, %2 ], [ -1, %.lr.ph.preheader ], [ %.01116, %.lr.ph17 ], [ -1, %.lr.ph ]
  ret i32 %.06
}